ccopy_reg
_reconstructor
p0
(csklearn.svm.classes
LinearSVR
p1
c__builtin__
object
p2
Ntp3
Rp4
(dp5
S'loss'
p6
S'epsilon_insensitive'
p7
sS'C'
p8
F1.0
sS'verbose'
p9
I0
sS'dual'
p10
I01
sS'fit_intercept'
p11
I01
sS'epsilon'
p12
F0.0
sS'max_iter'
p13
I1000
sS'n_iter_'
p14
cnumpy.core.multiarray
scalar
p15
(cnumpy
dtype
p16
(S'i4'
p17
I0
I1
tp18
Rp19
(I3
S'<'
p20
NNNI-1
I-1
I0
tp21
bS'\xe8\x03\x00\x00'
p22
tp23
Rp24
sS'random_state'
p25
NsS'tol'
p26
F0.0001
sS'coef_'
p27
cnumpy.core.multiarray
_reconstruct
p28
(cnumpy
ndarray
p29
(I0
tp30
S'b'
p31
tp32
Rp33
(I1
(I10
tp34
g16
(S'f8'
p35
I0
I1
tp36
Rp37
(I3
S'<'
p38
NNNI-1
I-1
I0
tp39
bI00
S'\xfe\xca\x15\x93\nl\x02\xc0\x02\x82l\x7fzJ\x98?\x97x\xe2\xad\x0f\x0f\xe2\xbf)\xee]\x86\x9d\xcc\xb2?O\xb7%\xf1\xc9\xa2\xb5\xbf\xe0lU3\x1c|\x00@e\x1c\xd1\xb5\xafL\xb0\xbfjk\x92j\xefR\xe3?K%\xe7w["\xa9\xbfuG\x81\xebUm\xc0?'
p40
tp41
bsS'intercept_'
p42
g28
(g29
(I0
tp43
g31
tp44
Rp45
(I1
(I1
tp46
g37
I00
S'D\xf9\xc6\x195\xd0\xa3\xbf'
p47
tp48
bsS'intercept_scaling'
p49
F1.0
sb.